; Function Attrs: mustprogress uwtable
define hidden void @_ZN4cvc58internal13preprocessing4util17ITECareSimplifier10CareSetPtr5mkNewERS3_(ptr dead_on_unwind noalias writable writeonly sret(%"class.cvc5::internal::preprocessing::util::ITECareSimplifier::CareSetPtr") align 8 captures(none) initializes((0, 8)) %0, ptr noundef nonnull align 8 dereferenceable(48) %1) local_unnamed_addr #3 align 2 personality ptr @__gxx_personality_v0 {
  %3 = tail call noalias noundef nonnull dereferenceable(64) ptr @_Znwm(i64 noundef 64) #27
  store ptr %1, ptr %3, align 8, !tbaa !161
  %4 = getelementptr inbounds nuw i8, ptr %3, i64 8
  store i32 1, ptr %4, align 8, !tbaa !163
  %5 = getelementptr inbounds nuw i8, ptr %3, i64 24
  store i32 0, ptr %5, align 8, !tbaa !138
  %6 = getelementptr inbounds nuw i8, ptr %3, i64 32
  store ptr null, ptr %6, align 8, !tbaa !143
  %7 = getelementptr inbounds nuw i8, ptr %3, i64 40
  store ptr %5, ptr %7, align 8, !tbaa !144
  %8 = getelementptr inbounds nuw i8, ptr %3, i64 48
  store ptr %5, ptr %8, align 8, !tbaa !145
  %9 = getelementptr inbounds nuw i8, ptr %3, i64 56
  store i64 0, ptr %9, align 8, !tbaa !146
  store ptr %3, ptr %0, align 8, !tbaa !170
  ret void
}